; Function Attrs: nounwind uwtable
define void @Wln_RetFindSources(ptr noundef captures(none) initializes((108, 112)) %0) local_unnamed_addr #4 {
  %2 = getelementptr inbounds nuw i8, ptr %0, i64 108
  store i32 0, ptr %2, align 4, !tbaa !26
  %3 = load ptr, ptr %0, align 8, !tbaa !3
  %4 = getelementptr inbounds nuw i8, ptr %3, i64 176
  %5 = load i32, ptr %4, align 8, !tbaa !84
  %6 = add nsw i32 %5, 1
  store i32 %6, ptr %4, align 8, !tbaa !84
  %.not.i = icmp eq i32 %5, 0
  br i1 %.not.i, label %7, label %Wln_NtkIncrementTravId.exit

7:                                                ; preds = %1
  %8 = getelementptr inbounds nuw i8, ptr %3, i64 184
  %9 = getelementptr inbounds nuw i8, ptr %3, i64 72
  %.val.i = load i32, ptr %9, align 8, !tbaa !33
  %10 = load i32, ptr %8, align 8, !tbaa !33
  %.not.i.i.i = icmp slt i32 %10, %.val.i
  br i1 %.not.i.i.i, label %11, label %Vec_IntGrow.exit.i.i

11:                                               ; preds = %7
  %12 = getelementptr inbounds nuw i8, ptr %3, i64 192
  %13 = load ptr, ptr %12, align 8, !tbaa !12
  %.not9.i.i.i = icmp eq ptr %13, null
  %14 = sext i32 %.val.i to i64
  %15 = shl nsw i64 %14, 2
  br i1 %.not9.i.i.i, label %18, label %16

16:                                               ; preds = %11
  %17 = tail call ptr @realloc(ptr noundef nonnull %13, i64 noundef %15) #24
  br label %20

18:                                               ; preds = %11
  %19 = tail call noalias ptr @malloc(i64 noundef %15) #23
  br label %20

20:                                               ; preds = %18, %16
  %21 = phi ptr [ %17, %16 ], [ %19, %18 ]
  store ptr %21, ptr %12, align 8, !tbaa !12
  store i32 %.val.i, ptr %8, align 8, !tbaa !33
  br label %Vec_IntGrow.exit.i.i

Vec_IntGrow.exit.i.i:                             ; preds = %20, %7
  %22 = icmp sgt i32 %.val.i, 0
  br i1 %22, label %.lr.ph.i.i, label %Vec_IntFill.exit.i

.lr.ph.i.i:                                       ; preds = %Vec_IntGrow.exit.i.i
  %23 = getelementptr inbounds nuw i8, ptr %3, i64 192
  %24 = load ptr, ptr %23, align 8, !tbaa !12
  %wide.trip.count.i.i = zext nneg i32 %.val.i to i64
  %25 = shl nuw nsw i64 %wide.trip.count.i.i, 2
  tail call void @llvm.memset.p0.i64(ptr align 4 %24, i8 0, i64 %25, i1 false), !tbaa !13
  br label %Vec_IntFill.exit.i

Vec_IntFill.exit.i:                               ; preds = %.lr.ph.i.i, %Vec_IntGrow.exit.i.i
  %26 = getelementptr inbounds nuw i8, ptr %3, i64 188
  store i32 %.val.i, ptr %26, align 4, !tbaa !26
  br label %Wln_NtkIncrementTravId.exit

Wln_NtkIncrementTravId.exit:                      ; preds = %1, %Vec_IntFill.exit.i
  %27 = getelementptr i8, ptr %0, i64 124
  %.val89 = load i32, ptr %27, align 4, !tbaa !26
  %28 = icmp sgt i32 %.val89, 0
  br i1 %28, label %.lr.ph, label %.critedge

.lr.ph:                                           ; preds = %Wln_NtkIncrementTravId.exit
  %29 = getelementptr i8, ptr %0, i64 128
  br label %30

30:                                               ; preds = %.lr.ph, %30
  %indvars.iv = phi i64 [ 0, %.lr.ph ], [ %indvars.iv.next, %30 ]
  %.val = load ptr, ptr %29, align 8, !tbaa !12
  %31 = getelementptr inbounds nuw i32, ptr %.val, i64 %indvars.iv
  %32 = load i32, ptr %31, align 4, !tbaa !13
  tail call void @Wln_RetFindSources_rec(ptr noundef nonnull %0, i32 noundef %32)
  %indvars.iv.next = add nuw nsw i64 %indvars.iv, 1
  %.val8 = load i32, ptr %27, align 4, !tbaa !26
  %33 = sext i32 %.val8 to i64
  %34 = icmp slt i64 %indvars.iv.next, %33
  br i1 %34, label %30, label %.critedge, !llvm.loop !86

.critedge:                                        ; preds = %30, %Wln_NtkIncrementTravId.exit
  ret void
}